target datalayout = "e-m:e-p270:32:32-p271:32:32-p272:64:64-i64:64-i128:128-f80:128-n8:16:32:64-S128"
target triple = "x86_64-pc-linux-gnu"

%"class.std::vector.10" = type { %"struct.std::_Vector_base.11" }
%"struct.std::_Vector_base.11" = type { %"struct.std::_Vector_base<Variable *, std::allocator<Variable *>>::_Vector_impl" }
%"struct.std::_Vector_base<Variable *, std::allocator<Variable *>>::_Vector_impl" = type { %"struct.std::_Vector_base<Variable *, std::allocator<Variable *>>::_Vector_impl_data" }
%"struct.std::_Vector_base<Variable *, std::allocator<Variable *>>::_Vector_impl_data" = type { ptr, ptr, ptr }
%"class.std::__cxx11::basic_string" = type { %"struct.std::__cxx11::basic_string<char>::_Alloc_hider", i64, %union.anon }
%"struct.std::__cxx11::basic_string<char>::_Alloc_hider" = type { ptr }
%union.anon = type { i64, [8 x i8] }
%class.Variable = type { ptr, %"class.std::vector.10", %"class.std::__cxx11::basic_string", ptr, ptr, i8, i8, i8, i8, i8, i8, ptr, i8, %class.CVQualifiers }
%class.CVQualifiers = type { ptr, i8, i8, %"class.std::vector.51", %"class.std::vector.51" }
%"class.std::vector.51" = type { %"struct.std::_Bvector_base" }
%"struct.std::_Bvector_base" = type { %"struct.std::_Bvector_base<std::allocator<bool>>::_Bvector_impl" }
%"struct.std::_Bvector_base<std::allocator<bool>>::_Bvector_impl" = type { %"struct.std::_Bvector_base<std::allocator<bool>>::_Bvector_impl_data" }
%"struct.std::_Bvector_base<std::allocator<bool>>::_Bvector_impl_data" = type { %"struct.std::_Bit_iterator", %"struct.std::_Bit_iterator", ptr }
%"struct.std::_Bit_iterator" = type { %"struct.std::_Bit_iterator_base.base", [4 x i8] }
%"struct.std::_Bit_iterator_base.base" = type <{ ptr, i32 }>

@_ZN10Bookkeeper30rhs_bitfields_structs_vars_cntE = dso_local global i32 0, align 4
@_ZN10Bookkeeper16rhs_bitfield_cntE = dso_local global i32 0, align 4

; Function Attrs: mustprogress uwtable
define dso_local void @_ZN10Bookkeeper22record_bitfields_readsEPK8Variable(ptr noundef %0) #5 align 2 {
  %2 = alloca ptr, align 8
  %3 = alloca ptr, align 8
  store ptr %0, ptr %2, align 8, !tbaa !92
  call void @llvm.lifetime.start.p0(i64 8, ptr %3) #3
  %4 = load ptr, ptr %2, align 8, !tbaa !92
  %5 = getelementptr inbounds nuw %class.Variable, ptr %4, i32 0, i32 3
  %6 = load ptr, ptr %5, align 8, !tbaa !93
  store ptr %6, ptr %3, align 8, !tbaa !104
  %7 = load ptr, ptr %3, align 8, !tbaa !104
  %8 = call noundef zeroext i1 @_ZNK4Type13has_bitfieldsEv(ptr noundef nonnull align 8 dereferenceable(136) %7)
  br i1 %8, label %9, label %12

9:                                                ; preds = %1
  %10 = load i32, ptr @_ZN10Bookkeeper30rhs_bitfields_structs_vars_cntE, align 4, !tbaa !15
  %11 = add nsw i32 %10, 1
  store i32 %11, ptr @_ZN10Bookkeeper30rhs_bitfields_structs_vars_cntE, align 4, !tbaa !15
  br label %12

12:                                               ; preds = %9, %1
  %13 = load ptr, ptr %2, align 8, !tbaa !92
  %14 = getelementptr inbounds nuw %class.Variable, ptr %13, i32 0, i32 8
  %15 = load i8, ptr %14, align 1, !tbaa !161, !range !72, !noundef !73
  %16 = trunc i8 %15 to i1
  br i1 %16, label %17, label %20

17:                                               ; preds = %12
  %18 = load i32, ptr @_ZN10Bookkeeper16rhs_bitfield_cntE, align 4, !tbaa !15
  %19 = add nsw i32 %18, 1
  store i32 %19, ptr @_ZN10Bookkeeper16rhs_bitfield_cntE, align 4, !tbaa !15
  br label %20

20:                                               ; preds = %17, %12
  call void @llvm.lifetime.end.p0(i64 8, ptr %3) #3
  ret void
}